; Function Attrs: mustprogress uwtable
define hidden void @_ZN4cvc58internal11NodeManager16mkConstRealOrIntERKNS0_8RationalE(ptr noalias sret(%"class.cvc5::internal::NodeTemplate") align 8 %agg.result, ptr noundef nonnull align 8 dereferenceable(3360) %this, ptr noundef nonnull align 8 dereferenceable(32) %r) local_unnamed_addr #3 align 2 {
entry:
  %_mp_den.i.i = getelementptr inbounds i8, ptr %r, i64 16
  %call2.i = tail call i32 @__gmpz_cmp_ui(ptr noundef nonnull %_mp_den.i.i, i64 noundef 1) #31
  %cmp.i = icmp eq i32 %call2.i, 0
  %. = select i1 %cmp.i, i32 67, i32 66
  tail call void @_ZN4cvc58internal11NodeManager15mkConstInternalINS0_12NodeTemplateILb1EEENS0_8RationalEEET_NS0_4kind6Kind_tERKT0_(ptr sret(%"class.cvc5::internal::NodeTemplate") align 8 %agg.result, ptr noundef nonnull align 8 dereferenceable(3360) %this, i32 noundef %., ptr noundef nonnull align 8 dereferenceable(32) %r)
  ret void
}